(lp0
(F-4.012861251831055
F1.1697196960449219
F0.0517352819442749
F0.023
F-0.005635499954223633
F0.6971599979568481
F1.320184018143799
F1.400994935093994
F-0.20021123069610597
F1.7191860958447265
F-0.0019316699136972398
F1.65935895309906
F7.50085385560987e-05
tp1
a.