(lp0
ccopy_reg
_reconstructor
p1
(cgeometry_msgs.msg._Pose
Pose
p2
c__builtin__
object
p3
Ntp4
Rp5
(lp6
g1
(cgeometry_msgs.msg._Point
Point
p7
g3
Ntp8
Rp9
(lp10
F1.0003150898142394
aF-0.0031697052684065245
aF0.47696214245923274
abag1
(cgeometry_msgs.msg._Quaternion
Quaternion
p11
g3
Ntp12
Rp13
(lp14
F0.002835202389874018
aF-0.003979949504146103
aF0.00819339921021362
aF0.9999544938839643
ababa(lp15
(lp16
I1
ag1
(g2
g3
Ntp17
Rp18
(lp19
g1
(g7
g3
Ntp20
Rp21
(lp22
F0.7462919716042528
aF0.004257754882087683
aF0.7567567584644965
abag1
(g11
g3
Ntp23
Rp24
(lp25
F-0.03407807252157967
aF-0.6647091784791523
aF0.00768332564542553
aF0.7462850390606869
ababaa(lp26
I2
ag1
(g2
g3
Ntp27
Rp28
(lp29
g1
(g7
g3
Ntp30
Rp31
(lp32
F1.0005018682930322
aF-0.025900402995665022
aF0.7597186279441258
abag1
(g11
g3
Ntp33
Rp34
(lp35
F-0.016858349376840224
aF-0.6938978003429427
aF-0.0048713322906381185
aF0.7198596452484528
ababaa(lp36
I3
ag1
(g2
g3
Ntp37
Rp38
(lp39
g1
(g7
g3
Ntp40
Rp41
(lp42
F1.0933278849183212
aF-0.19595408412832532
aF0.762387164940908
abag1
(g11
g3
Ntp43
Rp44
(lp45
F-0.05937027518633304
aF-0.682053560928617
aF-0.03325954978360407
aF0.7281290495489687
ababaa(lp46
I0
ag1
(g2
g3
Ntp47
Rp48
(lp49
g1
(g7
g3
Ntp50
Rp51
(lp52
F1.000597950276078
aF-0.3112518871202639
aF0.7595665473600843
abag1
(g11
g3
Ntp53
Rp54
(lp55
F-0.06016500762464733
aF-0.6936978114234659
aF-0.03159921431093429
aF0.7170530021823712
ababaa(lp56
I4
ag1
(g2
g3
Ntp57
Rp58
(lp59
g1
(g7
g3
Ntp60
Rp61
(lp62
F1.2154170486119462
aF0.1619892304199939
aF0.7619326750796351
abag1
(g11
g3
Ntp63
Rp64
(lp65
F0.035501615616944725
aF-0.7460150617458838
aF0.014699264276740478
aF0.6648195955043704
ababaaa.